; Function Attrs: mustprogress uwtable
define void @_ZN9pymeshlab11FunctionSetC2Ev(ptr noundef nonnull align 8 dereferenceable(384) %0) unnamed_addr #9 align 2 personality ptr @__gxx_personality_v0 {
  tail call void @_ZN12MeshDocumentC1Ev(ptr noundef nonnull align 8 dereferenceable(192) %0)
  %2 = getelementptr inbounds i8, ptr %0, i64 200
  store i32 0, ptr %2, align 8
  %3 = getelementptr inbounds i8, ptr %0, i64 208
  store ptr null, ptr %3, align 8
  %4 = getelementptr inbounds i8, ptr %0, i64 216
  store ptr %2, ptr %4, align 8
  %5 = getelementptr inbounds i8, ptr %0, i64 224
  store ptr %2, ptr %5, align 8
  %6 = getelementptr inbounds i8, ptr %0, i64 232
  store i64 0, ptr %6, align 8
  %7 = getelementptr inbounds i8, ptr %0, i64 248
  store i32 0, ptr %7, align 8
  %8 = getelementptr inbounds i8, ptr %0, i64 256
  store ptr null, ptr %8, align 8
  %9 = getelementptr inbounds i8, ptr %0, i64 264
  store ptr %7, ptr %9, align 8
  %10 = getelementptr inbounds i8, ptr %0, i64 272
  store ptr %7, ptr %10, align 8
  %11 = getelementptr inbounds i8, ptr %0, i64 280
  store i64 0, ptr %11, align 8
  %12 = getelementptr inbounds i8, ptr %0, i64 296
  store i32 0, ptr %12, align 8
  %13 = getelementptr inbounds i8, ptr %0, i64 304
  store ptr null, ptr %13, align 8
  %14 = getelementptr inbounds i8, ptr %0, i64 312
  store ptr %12, ptr %14, align 8
  %15 = getelementptr inbounds i8, ptr %0, i64 320
  store ptr %12, ptr %15, align 8
  %16 = getelementptr inbounds i8, ptr %0, i64 328
  store i64 0, ptr %16, align 8
  %17 = getelementptr inbounds i8, ptr %0, i64 344
  store i32 0, ptr %17, align 8
  %18 = getelementptr inbounds i8, ptr %0, i64 352
  store ptr null, ptr %18, align 8
  %19 = getelementptr inbounds i8, ptr %0, i64 360
  store ptr %17, ptr %19, align 8
  %20 = getelementptr inbounds i8, ptr %0, i64 368
  store ptr %17, ptr %20, align 8
  %21 = getelementptr inbounds i8, ptr %0, i64 376
  store i64 0, ptr %21, align 8
  ret void
}